; Function Attrs: mustprogress nofree norecurse nosync nounwind willreturn memory(read, inaccessiblemem: none) uwtable
define hidden ptr @_ZNK13hilbert_basis3vecENS_8offset_tE(ptr nocapture noundef nonnull readonly align 8 dereferenceable(127) %this, i32 %offs.coerce) local_unnamed_addr #8 align 2 {
entry:
  %m_ineqs = getelementptr inbounds i8, ptr %this, i64 8
  %0 = load ptr, ptr %m_ineqs, align 8
  %cmp.i = icmp eq ptr %0, null
  br i1 %cmp.i, label %_ZNK6vectorIS_I13checked_int64ILb1EELb1EjELb1EjE4sizeEv.exit, label %if.end.i

if.end.i:                                         ; preds = %entry
  %arrayidx.i = getelementptr inbounds i8, ptr %0, i64 -4
  %1 = load i32, ptr %arrayidx.i, align 4
  %2 = zext i32 %1 to i64
  br label %_ZNK6vectorIS_I13checked_int64ILb1EELb1EjELb1EjE4sizeEv.exit

_ZNK6vectorIS_I13checked_int64ILb1EELb1EjELb1EjE4sizeEv.exit: ; preds = %entry, %if.end.i
  %retval.0.i = phi i64 [ %2, %if.end.i ], [ 0, %entry ]
  %m_store = getelementptr inbounds i8, ptr %this, i64 24
  %3 = load ptr, ptr %m_store, align 8
  %idx.ext = zext i32 %offs.coerce to i64
  %add.ptr = getelementptr inbounds %class.checked_int64, ptr %3, i64 %idx.ext
  %add.ptr.i = getelementptr inbounds %class.checked_int64, ptr %add.ptr, i64 %retval.0.i
  ret ptr %add.ptr.i
}